; Function Attrs: nounwind sspstrong uwtable
define internal fastcc range(i32 0, 4) i32 @number_literal_suffix(ptr noundef %0, i32 noundef range(i32 2, 4) %1) unnamed_addr #0 {
  %3 = getelementptr inbounds nuw i8, ptr %0, i64 80
  %4 = load ptr, ptr %3, align 8, !tbaa !184
  %5 = getelementptr inbounds nuw i8, ptr %0, i64 88
  %6 = getelementptr inbounds nuw i8, ptr %0, i64 360
  %7 = getelementptr inbounds nuw i8, ptr %0, i64 64
  br label %.backedge

.backedge:                                        ; preds = %.backedge.backedge, %2
  %8 = phi ptr [ %4, %2 ], [ %19, %.backedge.backedge ]
  %.029 = phi i32 [ %1, %2 ], [ %.029.be, %.backedge.backedge ]
  %.028 = phi i32 [ 0, %2 ], [ %.028.be, %.backedge.backedge ]
  %9 = load ptr, ptr %5, align 8, !tbaa !420
  %.not.i = icmp ult ptr %8, %9
  br i1 %.not.i, label %10, label %.critedge.i, !prof !533

10:                                               ; preds = %.backedge
  %11 = load i32, ptr %6, align 8
  %12 = and i32 %11, 8
  %.not13.i = icmp eq i32 %12, 0
  br i1 %.not13.i, label %13, label %.critedge.i, !prof !533

13:                                               ; preds = %10
  %14 = load ptr, ptr %7, align 8, !tbaa !534
  %15 = icmp ugt ptr %14, inttoptr (i64 1 to ptr)
  br i1 %15, label %.critedge.i, label %17, !prof !204

.critedge.i:                                      ; preds = %13, %10, %.backedge
  %16 = tail call fastcc i32 @nextline(ptr noundef nonnull %0, i32 noundef 1)
  %.not14.i = icmp eq i32 %16, 0
  br i1 %.not14.i, label %.critedge._crit_edge.i, label %nextc0.exit

.critedge._crit_edge.i:                           ; preds = %.critedge.i
  %.pre.i = load ptr, ptr %3, align 8, !tbaa !184
  br label %17

17:                                               ; preds = %.critedge._crit_edge.i, %13
  %18 = phi ptr [ %.pre.i, %.critedge._crit_edge.i ], [ %8, %13 ]
  %19 = getelementptr i8, ptr %18, i64 1
  store ptr %19, ptr %3, align 8, !tbaa !184
  %20 = load i8, ptr %18, align 1, !tbaa !25
  %21 = icmp eq i8 %20, 13
  br i1 %21, label %22, label %28, !prof !204

22:                                               ; preds = %17
  %23 = load ptr, ptr %5, align 8, !tbaa !420
  %.not.i.i = icmp ult ptr %19, %23
  br i1 %.not.i.i, label %24, label %.thread44

24:                                               ; preds = %22
  %25 = load i8, ptr %19, align 1, !tbaa !25
  %26 = icmp eq i8 %25, 10
  %27 = getelementptr i8, ptr %18, i64 2
  %spec.select = select i1 %26, ptr %27, ptr %19
  %spec.select76 = select i1 %26, i32 10, i32 13
  br label %.thread44

28:                                               ; preds = %17
  %29 = and i32 %.029, 2
  %30 = icmp ne i32 %29, 0
  %31 = icmp eq i8 %20, 105
  %or.cond = and i1 %30, %31
  br i1 %or.cond, label %32, label %34

32:                                               ; preds = %28
  %33 = or i32 %.028, 2
  br label %.backedge.backedge

.backedge.backedge:                               ; preds = %32, %38
  %.029.be = phi i32 [ 0, %32 ], [ %40, %38 ]
  %.028.be = phi i32 [ %33, %32 ], [ %39, %38 ]
  br label %.backedge, !llvm.loop !642

34:                                               ; preds = %28
  %35 = and i32 %.029, 1
  %36 = icmp ne i32 %35, 0
  %37 = icmp eq i8 %20, 114
  %or.cond3 = and i1 %36, %37
  br i1 %or.cond3, label %38, label %41

38:                                               ; preds = %34
  %39 = or i32 %.028, 1
  %40 = and i32 %.029, -2
  br label %.backedge.backedge

41:                                               ; preds = %34
  %42 = zext nneg i8 %20 to i32
  %43 = icmp slt i8 %20, 0
  br i1 %43, label %48, label %.thread44

.thread44:                                        ; preds = %24, %22, %41
  %44 = phi ptr [ %19, %41 ], [ %19, %22 ], [ %spec.select, %24 ]
  %.011.i.ph394347 = phi i32 [ %42, %41 ], [ 13, %22 ], [ %spec.select76, %24 ]
  %45 = and i32 %.011.i.ph394347, 95
  %46 = add nsw i32 %45, -65
  %narrow.i = icmp ult i32 %46, 26
  %47 = icmp eq i32 %.011.i.ph394347, 95
  %or.cond5 = or i1 %47, %narrow.i
  br i1 %or.cond5, label %48, label %50

48:                                               ; preds = %.thread44, %41
  store ptr %4, ptr %3, align 8, !tbaa !184
  %49 = getelementptr inbounds nuw i8, ptr %0, i64 96
  store ptr %4, ptr %49, align 8, !tbaa !51
  br label %nextc0.exit

50:                                               ; preds = %.thread44
  %51 = load i32, ptr %6, align 8
  %52 = and i32 %51, -9
  store i32 %52, ptr %6, align 8
  %53 = getelementptr i8, ptr %44, i64 -1
  store ptr %53, ptr %3, align 8, !tbaa !184
  %54 = getelementptr inbounds nuw i8, ptr %0, i64 72
  %55 = load ptr, ptr %54, align 8, !tbaa !52
  %56 = icmp ugt ptr %53, %55
  br i1 %56, label %57, label %nextc0.exit

57:                                               ; preds = %50
  %58 = load i8, ptr %53, align 1, !tbaa !25
  %59 = icmp eq i8 %58, 10
  br i1 %59, label %60, label %nextc0.exit

60:                                               ; preds = %57
  %61 = getelementptr i8, ptr %44, i64 -2
  %62 = load i8, ptr %61, align 1, !tbaa !25
  %63 = icmp eq i8 %62, 13
  br i1 %63, label %64, label %nextc0.exit

64:                                               ; preds = %60
  store ptr %61, ptr %3, align 8, !tbaa !184
  br label %nextc0.exit

nextc0.exit:                                      ; preds = %.critedge.i, %64, %60, %57, %50, %48
  %.0 = phi i32 [ 0, %48 ], [ %.028, %50 ], [ %.028, %57 ], [ %.028, %60 ], [ %.028, %64 ], [ %.028, %.critedge.i ]
  ret i32 %.0
}